target datalayout = "e-m:e-p270:32:32-p271:32:32-p272:64:64-i64:64-i128:128-f80:128-n8:16:32:64-S128"
target triple = "x86_64-pc-linux-gnu"

%struct.notes_tree = type { ptr, ptr, ptr, ptr, ptr, ptr, i32, i32 }
%struct.option = type { i32, i32, ptr, ptr, ptr, ptr, i32, ptr, i64, ptr, i64, ptr }
%struct.object_id = type { [32 x i8], i32 }

@.str.8 = private unnamed_addr constant [5 x i8] c"show\00", align 1
@.str.15 = private unnamed_addr constant [19 x i8] c"too many arguments\00", align 1
@the_repository = external global ptr, align 8
@.str.16 = private unnamed_addr constant [39 x i8] c"failed to resolve '%s' as a valid ref.\00", align 1
@.str.17 = private unnamed_addr constant [29 x i8] c"no note found for object %s.\00", align 1
@default_notes_tree = external global %struct.notes_tree, align 8
@.str.19 = private unnamed_addr constant [12 x i8] c"refs/notes/\00", align 1
@.str.20 = private unnamed_addr constant [52 x i8] c"refusing to %s notes in %s (outside of refs/notes/)\00", align 1
@.str.41 = private unnamed_addr constant [5 x i8] c"HEAD\00", align 1
@git_notes_show_usage = internal constant [2 x ptr] [ptr @.str.90, ptr null], align 16

; Function Attrs: nounwind uwtable
define internal ptr @init_notes_check(ptr noundef %0, i32 noundef %1) #0 {
  %3 = alloca ptr, align 8
  %4 = alloca i32, align 4
  %5 = alloca ptr, align 8
  %6 = alloca ptr, align 8
  store ptr %0, ptr %3, align 8, !tbaa !11
  store i32 %1, ptr %4, align 4, !tbaa !4
  call void @llvm.lifetime.start.p0(i64 8, ptr %5) #11
  call void @llvm.lifetime.start.p0(i64 8, ptr %6) #11
  %7 = load i32, ptr %4, align 4, !tbaa !4
  call void @init_notes(ptr noundef null, ptr noundef null, ptr noundef null, i32 noundef %7)
  store ptr @default_notes_tree, ptr %5, align 8, !tbaa !32
  %8 = load i32, ptr %4, align 4, !tbaa !4
  %9 = and i32 %8, 2
  %10 = icmp ne i32 %9, 0
  br i1 %10, label %11, label %15

11:                                               ; preds = %2
  %12 = load ptr, ptr %5, align 8, !tbaa !32
  %13 = getelementptr inbounds nuw %struct.notes_tree, ptr %12, i32 0, i32 4
  %14 = load ptr, ptr %13, align 8, !tbaa !61
  br label %19

15:                                               ; preds = %2
  %16 = load ptr, ptr %5, align 8, !tbaa !32
  %17 = getelementptr inbounds nuw %struct.notes_tree, ptr %16, i32 0, i32 3
  %18 = load ptr, ptr %17, align 8, !tbaa !65
  br label %19

19:                                               ; preds = %15, %11
  %20 = phi ptr [ %14, %11 ], [ %18, %15 ]
  store ptr %20, ptr %6, align 8, !tbaa !11
  %21 = load ptr, ptr %6, align 8, !tbaa !11
  %22 = call i32 @starts_with(ptr noundef %21, ptr noundef @.str.19)
  %23 = icmp ne i32 %22, 0
  br i1 %23, label %28, label %24

24:                                               ; preds = %19
  %25 = call ptr @_(ptr noundef @.str.20)
  %26 = load ptr, ptr %3, align 8, !tbaa !11
  %27 = load ptr, ptr %6, align 8, !tbaa !11
  call void (ptr, ...) @die(ptr noundef %25, ptr noundef %26, ptr noundef %27) #12
  unreachable

28:                                               ; preds = %19
  %29 = load ptr, ptr %5, align 8, !tbaa !32
  call void @llvm.lifetime.end.p0(i64 8, ptr %6) #11
  call void @llvm.lifetime.end.p0(i64 8, ptr %5) #11
  ret ptr %29
}

; Function Attrs: inlinehint nounwind uwtable
define internal i32 @const_error() #3 {
  ret i32 -1
}

; Function Attrs: nounwind uwtable
define internal i32 @show(i32 noundef %0, ptr noundef %1, ptr noundef %2, ptr noundef %3) #0 {
  %5 = alloca i32, align 4
  %6 = alloca ptr, align 8
  %7 = alloca ptr, align 8
  %8 = alloca ptr, align 8
  %9 = alloca ptr, align 8
  %10 = alloca ptr, align 8
  %11 = alloca %struct.object_id, align 4
  %12 = alloca ptr, align 8
  %13 = alloca i32, align 4
  %14 = alloca [1 x %struct.option], align 16
  %15 = alloca [3 x ptr], align 16
  store i32 %0, ptr %5, align 4, !tbaa !4
  store ptr %1, ptr %6, align 8, !tbaa !8
  store ptr %2, ptr %7, align 8, !tbaa !11
  store ptr %3, ptr %8, align 8, !tbaa !13
  call void @llvm.lifetime.start.p0(i64 8, ptr %9) #11
  call void @llvm.lifetime.start.p0(i64 8, ptr %10) #11
  call void @llvm.lifetime.start.p0(i64 36, ptr %11) #11
  call void @llvm.lifetime.start.p0(i64 8, ptr %12) #11
  call void @llvm.lifetime.start.p0(i64 4, ptr %13) #11
  call void @llvm.lifetime.start.p0(i64 88, ptr %14) #11
  call void @llvm.memset.p0.i64(ptr align 16 %14, i8 0, i64 88, i1 false)
  %16 = load i32, ptr %5, align 4, !tbaa !4
  %17 = load ptr, ptr %6, align 8, !tbaa !8
  %18 = load ptr, ptr %7, align 8, !tbaa !11
  %19 = getelementptr inbounds [1 x %struct.option], ptr %14, i64 0, i64 0
  %20 = call i32 @parse_options(i32 noundef %16, ptr noundef %17, ptr noundef %18, ptr noundef %19, ptr noundef @git_notes_show_usage, i32 noundef 0)
  store i32 %20, ptr %5, align 4, !tbaa !4
  %21 = load i32, ptr %5, align 4, !tbaa !4
  %22 = icmp slt i32 1, %21
  br i1 %22, label %23, label %28

23:                                               ; preds = %4
  %24 = call ptr @_(ptr noundef @.str.15)
  %25 = call i32 (ptr, ...) @error(ptr noundef %24)
  %26 = call i32 @const_error()
  %27 = getelementptr inbounds [1 x %struct.option], ptr %14, i64 0, i64 0
  call void @usage_with_options(ptr noundef @git_notes_show_usage, ptr noundef %27) #12
  unreachable

28:                                               ; preds = %4
  %29 = load i32, ptr %5, align 4, !tbaa !4
  %30 = icmp ne i32 %29, 0
  br i1 %30, label %31, label %35

31:                                               ; preds = %28
  %32 = load ptr, ptr %6, align 8, !tbaa !8
  %33 = getelementptr inbounds ptr, ptr %32, i64 0
  %34 = load ptr, ptr %33, align 8, !tbaa !11
  br label %36

35:                                               ; preds = %28
  br label %36

36:                                               ; preds = %35, %31
  %37 = phi ptr [ %34, %31 ], [ @.str.41, %35 ]
  store ptr %37, ptr %9, align 8, !tbaa !11
  %38 = load ptr, ptr @the_repository, align 8, !tbaa !13
  %39 = load ptr, ptr %9, align 8, !tbaa !11
  %40 = call i32 @repo_get_oid(ptr noundef %38, ptr noundef %39, ptr noundef %11)
  %41 = icmp ne i32 %40, 0
  br i1 %41, label %42, label %45

42:                                               ; preds = %36
  %43 = call ptr @_(ptr noundef @.str.16)
  %44 = load ptr, ptr %9, align 8, !tbaa !11
  call void (ptr, ...) @die(ptr noundef %43, ptr noundef %44) #12
  unreachable

45:                                               ; preds = %36
  %46 = call ptr @init_notes_check(ptr noundef @.str.8, i32 noundef 0)
  store ptr %46, ptr %10, align 8, !tbaa !32
  %47 = load ptr, ptr %10, align 8, !tbaa !32
  %48 = call ptr @get_note(ptr noundef %47, ptr noundef %11)
  store ptr %48, ptr %12, align 8, !tbaa !34
  %49 = load ptr, ptr %12, align 8, !tbaa !34
  %50 = icmp ne ptr %49, null
  br i1 %50, label %56, label %51

51:                                               ; preds = %45
  %52 = call ptr @_(ptr noundef @.str.17)
  %53 = call ptr @oid_to_hex(ptr noundef %11)
  %54 = call i32 (ptr, ...) @error(ptr noundef %52, ptr noundef %53)
  %55 = call i32 @const_error()
  store i32 %55, ptr %13, align 4, !tbaa !4
  br label %63

56:                                               ; preds = %45
  call void @llvm.lifetime.start.p0(i64 24, ptr %15) #11
  store ptr @.str.8, ptr %15, align 8, !tbaa !11
  %57 = getelementptr inbounds ptr, ptr %15, i64 1
  %58 = load ptr, ptr %12, align 8, !tbaa !34
  %59 = call ptr @oid_to_hex(ptr noundef %58)
  store ptr %59, ptr %57, align 8, !tbaa !11
  %60 = getelementptr inbounds ptr, ptr %15, i64 2
  store ptr null, ptr %60, align 8, !tbaa !11
  %61 = getelementptr inbounds [3 x ptr], ptr %15, i64 0, i64 0
  %62 = call i32 @execv_git_cmd(ptr noundef %61)
  store i32 %62, ptr %13, align 4, !tbaa !4
  call void @llvm.lifetime.end.p0(i64 24, ptr %15) #11
  br label %63

63:                                               ; preds = %56, %51
  %64 = load ptr, ptr %10, align 8, !tbaa !32
  call void @free_notes(ptr noundef %64)
  %65 = load i32, ptr %13, align 4, !tbaa !4
  call void @llvm.lifetime.end.p0(i64 88, ptr %14) #11
  call void @llvm.lifetime.end.p0(i64 4, ptr %13) #11
  call void @llvm.lifetime.end.p0(i64 8, ptr %12) #11
  call void @llvm.lifetime.end.p0(i64 36, ptr %11) #11
  call void @llvm.lifetime.end.p0(i64 8, ptr %10) #11
  call void @llvm.lifetime.end.p0(i64 8, ptr %9) #11
  ret i32 %65
}