; Function Attrs: nounwind uwtable
define internal i32 @show(i32 noundef %0, ptr noundef %1, ptr noundef %2, ptr readnone captures(none) %3) #0 {
  %5 = alloca %struct.object_id, align 4
  %6 = alloca [1 x %struct.option], align 16
  %7 = alloca [3 x ptr], align 16
  call void @llvm.lifetime.start.p0(i64 36, ptr nonnull %5) #16
  call void @llvm.lifetime.start.p0(i64 88, ptr nonnull %6) #16
  call void @llvm.memset.p0.i64(ptr noundef nonnull align 16 dereferenceable(88) %6, i8 0, i64 88, i1 false)
  %8 = call i32 @parse_options(i32 noundef %0, ptr noundef %1, ptr noundef %2, ptr noundef nonnull %6, ptr noundef nonnull @git_notes_show_usage, i32 noundef 0) #16
  %9 = icmp sgt i32 %8, 1
  br i1 %9, label %10, label %13

10:                                               ; preds = %4
  %11 = call fastcc ptr @_(ptr noundef nonnull @.str.15)
  %12 = call i32 (ptr, ...) @error(ptr noundef %11) #16
  call void @usage_with_options(ptr noundef nonnull @git_notes_show_usage, ptr noundef nonnull %6) #17
  unreachable

13:                                               ; preds = %4
  %.not = icmp eq i32 %8, 0
  br i1 %.not, label %16, label %14

14:                                               ; preds = %13
  %15 = load ptr, ptr %1, align 8, !tbaa !4
  br label %16

16:                                               ; preds = %13, %14
  %17 = phi ptr [ %15, %14 ], [ @.str.41, %13 ]
  %18 = load ptr, ptr @the_repository, align 8, !tbaa !20
  %19 = call i32 @repo_get_oid(ptr noundef %18, ptr noundef %17, ptr noundef nonnull %5) #16
  %.not14 = icmp eq i32 %19, 0
  br i1 %.not14, label %22, label %20

20:                                               ; preds = %16
  %21 = call fastcc ptr @_(ptr noundef nonnull @.str.16)
  call void (ptr, ...) @die(ptr noundef %21, ptr noundef %17) #17
  unreachable

22:                                               ; preds = %16
  call void @init_notes(ptr noundef null, ptr noundef null, ptr noundef null, i32 noundef 0) #16
  %.val.i = load ptr, ptr getelementptr inbounds nuw (i8, ptr @default_notes_tree, i64 24), align 8
  %23 = call i32 @starts_with(ptr noundef %.val.i, ptr noundef nonnull @.str.19) #16
  %.not7.i = icmp eq i32 %23, 0
  br i1 %.not7.i, label %24, label %init_notes_check.exit

24:                                               ; preds = %22
  %25 = call fastcc ptr @_(ptr noundef nonnull @.str.20)
  call void (ptr, ...) @die(ptr noundef %25, ptr noundef nonnull @.str.8, ptr noundef %.val.i) #17
  unreachable

init_notes_check.exit:                            ; preds = %22
  %26 = call ptr @get_note(ptr noundef nonnull @default_notes_tree, ptr noundef nonnull %5) #16
  %.not15 = icmp eq ptr %26, null
  br i1 %.not15, label %27, label %33

27:                                               ; preds = %init_notes_check.exit
  %28 = load i32, ptr @git_gettext_enabled, align 4, !tbaa !24
  %.not4.i = icmp eq i32 %28, 0
  br i1 %.not4.i, label %_.exit, label %29

29:                                               ; preds = %27
  %30 = call ptr @dcgettext(ptr noundef null, ptr noundef nonnull @.str.17, i32 noundef 5) #16
  br label %_.exit

_.exit:                                           ; preds = %27, %29
  %.0.i = phi ptr [ %30, %29 ], [ @.str.17, %27 ]
  %31 = call ptr @oid_to_hex(ptr noundef nonnull %5) #16
  %32 = call i32 (ptr, ...) @error(ptr noundef %.0.i, ptr noundef %31) #16
  br label %38

33:                                               ; preds = %init_notes_check.exit
  call void @llvm.lifetime.start.p0(i64 24, ptr nonnull %7) #16
  store ptr @.str.8, ptr %7, align 16, !tbaa !4
  %34 = getelementptr inbounds nuw i8, ptr %7, i64 8
  %35 = call ptr @oid_to_hex(ptr noundef nonnull %26) #16
  store ptr %35, ptr %34, align 8, !tbaa !4
  %36 = getelementptr inbounds nuw i8, ptr %7, i64 16
  store ptr null, ptr %36, align 16, !tbaa !4
  %37 = call i32 @execv_git_cmd(ptr noundef nonnull %7) #16
  call void @llvm.lifetime.end.p0(i64 24, ptr nonnull %7) #16
  br label %38

38:                                               ; preds = %33, %_.exit
  %.0 = phi i32 [ %37, %33 ], [ -1, %_.exit ]
  call void @free_notes(ptr noundef nonnull @default_notes_tree) #16
  call void @llvm.lifetime.end.p0(i64 88, ptr nonnull %6) #16
  call void @llvm.lifetime.end.p0(i64 36, ptr nonnull %5) #16
  ret i32 %.0
}